target datalayout = "e-m:e-p270:32:32-p271:32:32-p272:64:64-i64:64-i128:128-f80:128-n8:16:32:64-S128"
target triple = "x86_64-pc-linux-gnu"

%struct.ArrayBuildState = type { ptr, ptr, ptr, i32, i32, i32, i16, i8, i8, i8 }

@.str.35 = private unnamed_addr constant [17 x i8] c"accumArrayResult\00", align 1

; Function Attrs: nounwind uwtable
define dso_local ptr @initArrayResultWithSize(i32 noundef %0, ptr noundef %1, i1 noundef zeroext %2, i32 noundef %3) #0 {
  %5 = alloca i32, align 4
  %6 = alloca ptr, align 8
  %7 = alloca i8, align 1
  %8 = alloca i32, align 4
  %9 = alloca ptr, align 8
  %10 = alloca ptr, align 8
  %11 = alloca i32, align 4
  store i32 %0, ptr %5, align 4
  store ptr %1, ptr %6, align 8
  %12 = zext i1 %2 to i8
  store i8 %12, ptr %7, align 1
  store i32 %3, ptr %8, align 4
  call void @llvm.lifetime.start.p0(i64 8, ptr %9) #11
  call void @llvm.lifetime.start.p0(i64 8, ptr %10) #11
  %13 = load ptr, ptr %6, align 8
  store ptr %13, ptr %10, align 8
  %14 = load i8, ptr %7, align 1, !range !4, !noundef !5
  %15 = trunc i8 %14 to i1
  br i1 %15, label %16, label %22

16:                                               ; preds = %4
  br label %17

17:                                               ; preds = %16
  br label %18

18:                                               ; preds = %17
  br label %19

19:                                               ; preds = %18
  store i32 1, ptr %11, align 4
  %20 = load ptr, ptr %6, align 8
  %21 = call ptr @AllocSetContextCreateInternal(ptr noundef %20, ptr noundef @.str.35, i64 noundef 0, i64 noundef 8192, i64 noundef 8388608)
  store ptr %21, ptr %10, align 8
  br label %22

22:                                               ; preds = %19, %4
  %23 = load ptr, ptr %10, align 8
  %24 = call ptr @MemoryContextAlloc(ptr noundef %23, i64 noundef 48)
  store ptr %24, ptr %9, align 8
  %25 = load ptr, ptr %10, align 8
  %26 = load ptr, ptr %9, align 8
  %27 = getelementptr inbounds nuw %struct.ArrayBuildState, ptr %26, i32 0, i32 0
  store ptr %25, ptr %27, align 8
  %28 = load i8, ptr %7, align 1, !range !4, !noundef !5
  %29 = trunc i8 %28 to i1
  %30 = load ptr, ptr %9, align 8
  %31 = getelementptr inbounds nuw %struct.ArrayBuildState, ptr %30, i32 0, i32 9
  %32 = zext i1 %29 to i8
  store i8 %32, ptr %31, align 8
  %33 = load i32, ptr %8, align 4
  %34 = load ptr, ptr %9, align 8
  %35 = getelementptr inbounds nuw %struct.ArrayBuildState, ptr %34, i32 0, i32 3
  store i32 %33, ptr %35, align 8
  %36 = load ptr, ptr %10, align 8
  %37 = load ptr, ptr %9, align 8
  %38 = getelementptr inbounds nuw %struct.ArrayBuildState, ptr %37, i32 0, i32 3
  %39 = load i32, ptr %38, align 8
  %40 = sext i32 %39 to i64
  %41 = mul i64 %40, 8
  %42 = call ptr @MemoryContextAlloc(ptr noundef %36, i64 noundef %41)
  %43 = load ptr, ptr %9, align 8
  %44 = getelementptr inbounds nuw %struct.ArrayBuildState, ptr %43, i32 0, i32 1
  store ptr %42, ptr %44, align 8
  %45 = load ptr, ptr %10, align 8
  %46 = load ptr, ptr %9, align 8
  %47 = getelementptr inbounds nuw %struct.ArrayBuildState, ptr %46, i32 0, i32 3
  %48 = load i32, ptr %47, align 8
  %49 = sext i32 %48 to i64
  %50 = mul i64 %49, 1
  %51 = call ptr @MemoryContextAlloc(ptr noundef %45, i64 noundef %50)
  %52 = load ptr, ptr %9, align 8
  %53 = getelementptr inbounds nuw %struct.ArrayBuildState, ptr %52, i32 0, i32 2
  store ptr %51, ptr %53, align 8
  %54 = load ptr, ptr %9, align 8
  %55 = getelementptr inbounds nuw %struct.ArrayBuildState, ptr %54, i32 0, i32 4
  store i32 0, ptr %55, align 4
  %56 = load i32, ptr %5, align 4
  %57 = load ptr, ptr %9, align 8
  %58 = getelementptr inbounds nuw %struct.ArrayBuildState, ptr %57, i32 0, i32 5
  store i32 %56, ptr %58, align 8
  %59 = load i32, ptr %5, align 4
  %60 = load ptr, ptr %9, align 8
  %61 = getelementptr inbounds nuw %struct.ArrayBuildState, ptr %60, i32 0, i32 6
  %62 = load ptr, ptr %9, align 8
  %63 = getelementptr inbounds nuw %struct.ArrayBuildState, ptr %62, i32 0, i32 7
  %64 = load ptr, ptr %9, align 8
  %65 = getelementptr inbounds nuw %struct.ArrayBuildState, ptr %64, i32 0, i32 8
  call void @get_typlenbyvalalign(i32 noundef %59, ptr noundef %61, ptr noundef %63, ptr noundef %65)
  %66 = load ptr, ptr %9, align 8
  call void @llvm.lifetime.end.p0(i64 8, ptr %10) #11
  call void @llvm.lifetime.end.p0(i64 8, ptr %9) #11
  ret ptr %66
}

; Function Attrs: nounwind uwtable
define dso_local ptr @initArrayResult(i32 noundef %0, ptr noundef %1, i1 noundef zeroext %2) #0 {
  %4 = alloca i32, align 4
  %5 = alloca ptr, align 8
  %6 = alloca i8, align 1
  store i32 %0, ptr %4, align 4
  store ptr %1, ptr %5, align 8
  %7 = zext i1 %2 to i8
  store i8 %7, ptr %6, align 1
  %8 = load i32, ptr %4, align 4
  %9 = load ptr, ptr %5, align 8
  %10 = load i8, ptr %6, align 1, !range !4, !noundef !5
  %11 = trunc i8 %10 to i1
  %12 = load i8, ptr %6, align 1, !range !4, !noundef !5
  %13 = trunc i8 %12 to i1
  %14 = select i1 %13, i32 64, i32 8
  %15 = call ptr @initArrayResultWithSize(i32 noundef %8, ptr noundef %9, i1 noundef zeroext %11, i32 noundef %14)
  ret ptr %15
}