; Function Attrs: nounwind uwtable
define dso_local noundef ptr @initArrayResult(i32 noundef %0, ptr noundef %1, i1 noundef zeroext %2) local_unnamed_addr #0 {
  br i1 %2, label %4, label %initArrayResultWithSize.exit

4:                                                ; preds = %3
  %5 = tail call ptr @AllocSetContextCreateInternal(ptr noundef %1, ptr noundef nonnull @.str.35, i64 noundef 0, i64 noundef 8192, i64 noundef 8388608) #18
  br label %initArrayResultWithSize.exit

initArrayResultWithSize.exit:                     ; preds = %3, %4
  %6 = phi i32 [ 8, %3 ], [ 64, %4 ]
  %.0.i = phi ptr [ %1, %3 ], [ %5, %4 ]
  %7 = zext i1 %2 to i8
  %8 = tail call ptr @MemoryContextAlloc(ptr noundef %.0.i, i64 noundef 48) #18
  store ptr %.0.i, ptr %8, align 8
  %9 = getelementptr inbounds nuw i8, ptr %8, i64 40
  store i8 %7, ptr %9, align 8
  %10 = getelementptr inbounds nuw i8, ptr %8, i64 24
  store i32 %6, ptr %10, align 8
  %11 = shl nuw nsw i32 %6, 3
  %12 = zext nneg i32 %11 to i64
  %13 = tail call ptr @MemoryContextAlloc(ptr noundef %.0.i, i64 noundef %12) #18
  %14 = getelementptr inbounds nuw i8, ptr %8, i64 8
  store ptr %13, ptr %14, align 8
  %15 = load i32, ptr %10, align 8
  %16 = sext i32 %15 to i64
  %17 = tail call ptr @MemoryContextAlloc(ptr noundef %.0.i, i64 noundef %16) #18
  %18 = getelementptr inbounds nuw i8, ptr %8, i64 16
  store ptr %17, ptr %18, align 8
  %19 = getelementptr inbounds nuw i8, ptr %8, i64 28
  store i32 0, ptr %19, align 4
  %20 = getelementptr inbounds nuw i8, ptr %8, i64 32
  store i32 %0, ptr %20, align 8
  %21 = getelementptr inbounds nuw i8, ptr %8, i64 36
  %22 = getelementptr inbounds nuw i8, ptr %8, i64 38
  %23 = getelementptr inbounds nuw i8, ptr %8, i64 39
  tail call void @get_typlenbyvalalign(i32 noundef %0, ptr noundef nonnull %21, ptr noundef nonnull %22, ptr noundef nonnull %23) #18
  ret ptr %8
}